target datalayout = "e-m:e-p270:32:32-p271:32:32-p272:64:64-i64:64-i128:128-f80:128-n8:16:32:64-S128"
target triple = "x86_64-pc-linux-gnu"

; Function Attrs: nounwind uwtable
define hidden zeroext i16 @outStream_writeByte(ptr noundef %0, i8 noundef signext %1) #0 {
  %3 = alloca ptr, align 8
  %4 = alloca i8, align 1
  store ptr %0, ptr %3, align 8
  store i8 %1, ptr %4, align 1
  %5 = load ptr, ptr %3, align 8
  %6 = call zeroext i16 @writeBytes(ptr noundef %5, ptr noundef %4, i32 noundef 1)
  ret i16 %6
}

; Function Attrs: nounwind uwtable
define hidden zeroext i16 @outStream_writeObjectTag(ptr noundef %0, ptr noundef %1, ptr noundef %2) #0 {
  %4 = alloca ptr, align 8
  %5 = alloca ptr, align 8
  %6 = alloca ptr, align 8
  store ptr %0, ptr %4, align 8
  store ptr %1, ptr %5, align 8
  store ptr %2, ptr %6, align 8
  %7 = load ptr, ptr %5, align 8
  %8 = load ptr, ptr %4, align 8
  %9 = load ptr, ptr %6, align 8
  %10 = call signext i8 @specificTypeKey(ptr noundef %8, ptr noundef %9)
  %11 = call zeroext i16 @outStream_writeByte(ptr noundef %7, i8 noundef signext %10)
  ret i16 %11
}