; Function Attrs: nounwind uwtable
define hidden zeroext i16 @outStream_writeObjectTag(ptr noundef %0, ptr nocapture noundef %1, ptr noundef %2) local_unnamed_addr #0 {
  %4 = alloca i8, align 1
  %5 = tail call signext i8 @specificTypeKey(ptr noundef %0, ptr noundef %2) #7
  call void @llvm.lifetime.start.p0(i64 1, ptr nonnull %4)
  store i8 %5, ptr %4, align 1
  %6 = call fastcc zeroext i16 @writeBytes(ptr noundef %1, ptr noundef nonnull %4, i32 noundef 1)
  call void @llvm.lifetime.end.p0(i64 1, ptr nonnull %4)
  ret i16 %6
}